; Function Attrs: nounwind uwtable
define noalias ptr @ossl_qtx_new(ptr noundef readonly captures(none) %0) local_unnamed_addr #0 {
  %2 = getelementptr inbounds nuw i8, ptr %0, i64 24
  %3 = load i64, ptr %2, align 8, !tbaa !3
  %4 = icmp ult i64 %3, 1200
  br i1 %4, label %24, label %5

5:                                                ; preds = %1
  %6 = tail call noalias ptr @CRYPTO_zalloc(i64 noundef 1024, ptr noundef nonnull @.str, i32 noundef 120) #11
  %7 = icmp eq ptr %6, null
  br i1 %7, label %24, label %8

8:                                                ; preds = %5
  %9 = load ptr, ptr %0, align 8, !tbaa !12
  store ptr %9, ptr %6, align 8, !tbaa !13
  %10 = getelementptr inbounds nuw i8, ptr %0, i64 8
  %11 = load ptr, ptr %10, align 8, !tbaa !19
  %12 = getelementptr inbounds nuw i8, ptr %6, i64 8
  store ptr %11, ptr %12, align 8, !tbaa !20
  %13 = getelementptr inbounds nuw i8, ptr %0, i64 16
  %14 = load ptr, ptr %13, align 8, !tbaa !21
  %15 = getelementptr inbounds nuw i8, ptr %6, i64 848
  store ptr %14, ptr %15, align 8, !tbaa !22
  %16 = load i64, ptr %2, align 8, !tbaa !3
  %17 = getelementptr inbounds nuw i8, ptr %6, i64 872
  store i64 %16, ptr %17, align 8, !tbaa !23
  %18 = getelementptr inbounds nuw i8, ptr %0, i64 32
  %19 = load ptr, ptr %18, align 8, !tbaa !24
  %20 = getelementptr inbounds nuw i8, ptr %6, i64 856
  store ptr %19, ptr %20, align 8, !tbaa !25
  %21 = getelementptr inbounds nuw i8, ptr %0, i64 40
  %22 = load ptr, ptr %21, align 8, !tbaa !26
  %23 = getelementptr inbounds nuw i8, ptr %6, i64 864
  store ptr %22, ptr %23, align 8, !tbaa !27
  br label %24

24:                                               ; preds = %5, %1, %8
  %.0 = phi ptr [ %6, %8 ], [ null, %1 ], [ null, %5 ]
  ret ptr %.0
}